target datalayout = "e-m:e-p270:32:32-p271:32:32-p272:64:64-i64:64-i128:128-f80:128-n8:16:32:64-S128"
target triple = "x86_64-pc-linux-gnu"

@.str.3 = private unnamed_addr constant [11 x i8] c"PUBLIC KEY\00", align 1
@.str.15 = private unnamed_addr constant [4 x i8] c"PEM\00", align 1
@.str.16 = private unnamed_addr constant [21 x i8] c"SubjectPublicKeyInfo\00", align 1

; Function Attrs: nounwind uwtable
define i32 @PEM_write_bio_PUBKEY_ex(ptr noundef %0, ptr noundef %1, ptr noundef %2, ptr noundef %3) #0 {
  %5 = alloca i32, align 4
  %6 = alloca ptr, align 8
  %7 = alloca ptr, align 8
  %8 = alloca ptr, align 8
  %9 = alloca ptr, align 8
  %10 = alloca i32, align 4
  %11 = alloca ptr, align 8
  %12 = alloca i32, align 4
  store ptr %0, ptr %6, align 8, !tbaa !3
  store ptr %1, ptr %7, align 8, !tbaa !33
  store ptr %2, ptr %8, align 8, !tbaa !63
  store ptr %3, ptr %9, align 8, !tbaa !39
  call void @llvm.lifetime.start.p0(i64 4, ptr %10) #4
  store i32 0, ptr %10, align 4, !tbaa !41
  call void @llvm.lifetime.start.p0(i64 8, ptr %11) #4
  %13 = load ptr, ptr %7, align 8, !tbaa !33
  %14 = load ptr, ptr %9, align 8, !tbaa !39
  %15 = call ptr @OSSL_ENCODER_CTX_new_for_pkey(ptr noundef %13, i32 noundef 134, ptr noundef @.str.15, ptr noundef @.str.16, ptr noundef %14)
  store ptr %15, ptr %11, align 8, !tbaa !61
  %16 = load ptr, ptr %11, align 8, !tbaa !61
  %17 = call i32 @OSSL_ENCODER_CTX_get_num_encoders(ptr noundef %16)
  %18 = icmp eq i32 %17, 0
  br i1 %18, label %19, label %21

19:                                               ; preds = %4
  %20 = load ptr, ptr %11, align 8, !tbaa !61
  call void @OSSL_ENCODER_CTX_free(ptr noundef %20)
  br label %27

21:                                               ; preds = %4
  %22 = load ptr, ptr %11, align 8, !tbaa !61
  %23 = load ptr, ptr %6, align 8, !tbaa !3
  %24 = call i32 @OSSL_ENCODER_to_bio(ptr noundef %22, ptr noundef %23)
  store i32 %24, ptr %10, align 4, !tbaa !41
  %25 = load ptr, ptr %11, align 8, !tbaa !61
  call void @OSSL_ENCODER_CTX_free(ptr noundef %25)
  %26 = load i32, ptr %10, align 4, !tbaa !41
  store i32 %26, ptr %5, align 4
  store i32 1, ptr %12, align 4
  br label %31

27:                                               ; preds = %19
  %28 = load ptr, ptr %6, align 8, !tbaa !3
  %29 = load ptr, ptr %7, align 8, !tbaa !33
  %30 = call i32 @PEM_ASN1_write_bio(ptr noundef @i2d_PUBKEY, ptr noundef @.str.3, ptr noundef %28, ptr noundef %29, ptr noundef null, ptr noundef null, i32 noundef 0, ptr noundef null, ptr noundef null)
  store i32 %30, ptr %5, align 4
  store i32 1, ptr %12, align 4
  br label %31

31:                                               ; preds = %27, %21
  call void @llvm.lifetime.end.p0(i64 8, ptr %11) #4
  call void @llvm.lifetime.end.p0(i64 4, ptr %10) #4
  %32 = load i32, ptr %5, align 4
  ret i32 %32
}