; Function Attrs: nounwind uwtable
define i32 @PEM_write_bio_PUBKEY_ex(ptr noundef %0, ptr noundef %1, ptr noundef readnone captures(none) %2, ptr noundef %3) local_unnamed_addr #0 {
  %5 = tail call ptr @OSSL_ENCODER_CTX_new_for_pkey(ptr noundef %1, i32 noundef 134, ptr noundef nonnull @.str.15, ptr noundef nonnull @.str.16, ptr noundef %3) #4
  %6 = tail call i32 @OSSL_ENCODER_CTX_get_num_encoders(ptr noundef %5) #4
  %7 = icmp eq i32 %6, 0
  br i1 %7, label %8, label %10

8:                                                ; preds = %4
  tail call void @OSSL_ENCODER_CTX_free(ptr noundef %5) #4
  %9 = tail call i32 @PEM_ASN1_write_bio(ptr noundef nonnull @i2d_PUBKEY, ptr noundef nonnull @.str.3, ptr noundef %0, ptr noundef %1, ptr noundef null, ptr noundef null, i32 noundef 0, ptr noundef null, ptr noundef null) #4
  br label %12

10:                                               ; preds = %4
  %11 = tail call i32 @OSSL_ENCODER_to_bio(ptr noundef %5, ptr noundef %0) #4
  tail call void @OSSL_ENCODER_CTX_free(ptr noundef %5) #4
  br label %12

12:                                               ; preds = %8, %10
  %.0 = phi i32 [ %9, %8 ], [ %11, %10 ]
  ret i32 %.0
}